target datalayout = "e-m:e-p270:32:32-p271:32:32-p272:64:64-i64:64-i128:128-f80:128-n8:16:32:64-S128"
target triple = "x86_64-pc-linux-gnu"

; Function Attrs: norecurse uwtable
define internal void @_ZNK8LightGBM12CrossEntropy14BoostFromScoreEi.omp_outlined.73.omp.reduction.reduction_func(ptr noundef %0, ptr noundef %1) #20 {
  %3 = alloca ptr, align 8
  %4 = alloca ptr, align 8
  store ptr %0, ptr %3, align 8, !tbaa !219
  store ptr %1, ptr %4, align 8, !tbaa !219
  %5 = load ptr, ptr %3, align 8
  %6 = load ptr, ptr %4, align 8
  %7 = getelementptr inbounds [1 x ptr], ptr %6, i64 0, i64 0
  %8 = load ptr, ptr %7, align 8
  %9 = getelementptr inbounds [1 x ptr], ptr %5, i64 0, i64 0
  %10 = load ptr, ptr %9, align 8
  %11 = load double, ptr %10, align 8, !tbaa !194
  %12 = load double, ptr %8, align 8, !tbaa !194
  %13 = fadd double %11, %12
  store double %13, ptr %10, align 8, !tbaa !194
  ret void
}